target datalayout = "e-m:e-p270:32:32-p271:32:32-p272:64:64-i64:64-i128:128-f80:128-n8:16:32:64-S128"
target triple = "x86_64-pc-linux-gnu"

@.str.12 = private unnamed_addr constant [2 x i8] c"\0A\00", align 1
@.str.13 = private unnamed_addr constant [98 x i8] c"    dfflibmap [-prepare] [-map-only] [-info] [-dont_use <cell_name>] -liberty <file> [selection]\0A\00", align 1
@.str.14 = private unnamed_addr constant [71 x i8] c"Map internal flip-flop cells to the flip-flop cells in the technology\0A\00", align 1
@.str.15 = private unnamed_addr constant [47 x i8] c"library specified in the given liberty files.\0A\00", align 1
@.str.16 = private unnamed_addr constant [71 x i8] c"This pass may add inverters as needed. Therefore it is recommended to\0A\00", align 1
@.str.17 = private unnamed_addr constant [76 x i8] c"first run this pass and then map the logic paths to the target technology.\0A\00", align 1
@.str.18 = private unnamed_addr constant [76 x i8] c"When called with -prepare, this command will convert the internal FF cells\0A\00", align 1
@.str.19 = private unnamed_addr constant [73 x i8] c"to the internal cell types that best match the cells found in the given\0A\00", align 1
@.str.20 = private unnamed_addr constant [64 x i8] c"liberty file, but won't actually map them to the target cells.\0A\00", align 1
@.str.21 = private unnamed_addr constant [70 x i8] c"When called with -map-only, this command will only map internal cell\0A\00", align 1
@.str.22 = private unnamed_addr constant [70 x i8] c"types that are already of exactly the right type to match the target\0A\00", align 1
@.str.23 = private unnamed_addr constant [52 x i8] c"cells, leaving remaining internal cells untouched.\0A\00", align 1
@.str.24 = private unnamed_addr constant [70 x i8] c"When called with -info, this command will only print the target cell\0A\00", align 1
@.str.25 = private unnamed_addr constant [74 x i8] c"list, along with their associated internal cell types, and the arguments\0A\00", align 1
@.str.26 = private unnamed_addr constant [71 x i8] c"that would be passed to the dfflegalize pass.  The design will not be\0A\00", align 1
@.str.27 = private unnamed_addr constant [10 x i8] c"changed.\0A\00", align 1
@.str.28 = private unnamed_addr constant [77 x i8] c"When called with -dont_use, this command will not map to the specified cell\0A\00", align 1
@.str.29 = private unnamed_addr constant [78 x i8] c"name as an alternative to setting the dont_use property in the Liberty file.\0A\00", align 1
@.str.30 = private unnamed_addr constant [76 x i8] c"This argument can be called multiple times with different cell names. This\0A\00", align 1
@.str.31 = private unnamed_addr constant [63 x i8] c"argument also supports simple glob patterns in the cell name.\0A\00", align 1

; Function Attrs: mustprogress uwtable
define internal void @_ZN12_GLOBAL__N_113DfflibmapPass4helpEv(ptr noundef nonnull align 8 dereferenceable(104) %0) unnamed_addr #5 align 2 {
  %2 = alloca ptr, align 8
  store ptr %0, ptr %2, align 8, !tbaa !11
  call void (ptr, ...) @_ZN5Yosys3logEPKcz(ptr noundef @.str.12)
  call void (ptr, ...) @_ZN5Yosys3logEPKcz(ptr noundef @.str.13)
  call void (ptr, ...) @_ZN5Yosys3logEPKcz(ptr noundef @.str.12)
  call void (ptr, ...) @_ZN5Yosys3logEPKcz(ptr noundef @.str.14)
  call void (ptr, ...) @_ZN5Yosys3logEPKcz(ptr noundef @.str.15)
  call void (ptr, ...) @_ZN5Yosys3logEPKcz(ptr noundef @.str.12)
  call void (ptr, ...) @_ZN5Yosys3logEPKcz(ptr noundef @.str.16)
  call void (ptr, ...) @_ZN5Yosys3logEPKcz(ptr noundef @.str.17)
  call void (ptr, ...) @_ZN5Yosys3logEPKcz(ptr noundef @.str.12)
  call void (ptr, ...) @_ZN5Yosys3logEPKcz(ptr noundef @.str.18)
  call void (ptr, ...) @_ZN5Yosys3logEPKcz(ptr noundef @.str.19)
  call void (ptr, ...) @_ZN5Yosys3logEPKcz(ptr noundef @.str.20)
  call void (ptr, ...) @_ZN5Yosys3logEPKcz(ptr noundef @.str.12)
  call void (ptr, ...) @_ZN5Yosys3logEPKcz(ptr noundef @.str.21)
  call void (ptr, ...) @_ZN5Yosys3logEPKcz(ptr noundef @.str.22)
  call void (ptr, ...) @_ZN5Yosys3logEPKcz(ptr noundef @.str.23)
  call void (ptr, ...) @_ZN5Yosys3logEPKcz(ptr noundef @.str.12)
  call void (ptr, ...) @_ZN5Yosys3logEPKcz(ptr noundef @.str.24)
  call void (ptr, ...) @_ZN5Yosys3logEPKcz(ptr noundef @.str.25)
  call void (ptr, ...) @_ZN5Yosys3logEPKcz(ptr noundef @.str.26)
  call void (ptr, ...) @_ZN5Yosys3logEPKcz(ptr noundef @.str.27)
  call void (ptr, ...) @_ZN5Yosys3logEPKcz(ptr noundef @.str.12)
  call void (ptr, ...) @_ZN5Yosys3logEPKcz(ptr noundef @.str.28)
  call void (ptr, ...) @_ZN5Yosys3logEPKcz(ptr noundef @.str.29)
  call void (ptr, ...) @_ZN5Yosys3logEPKcz(ptr noundef @.str.30)
  call void (ptr, ...) @_ZN5Yosys3logEPKcz(ptr noundef @.str.31)
  call void (ptr, ...) @_ZN5Yosys3logEPKcz(ptr noundef @.str.12)
  ret void
}